(lp0
S'poi'
p1
aS'salary'
p2
aS'bonus'
p3
aS'total_payments'
p4
aS'exercised_stock_options'
p5
aS'from_poi_to_this_person'
p6
aS'from_this_person_to_poi'
p7
aS'shared_receipt_with_poi'
p8
aS'frac_from_poi'
p9
aS'frac_to_poi'
p10
a.